# SymbolsHelper-Confirmed: 4:15.12.0 hppa sparc64 x32
libkcompactdisc.so.4 libkcompactdisc4 #MINVER#
 _ZN12KCompactDisc10deviceNameEv@Base 4:4.3.4
 _ZN12KCompactDisc10discArtistEv@Base 4:4.3.4
 _ZN12KCompactDisc10discLengthEv@Base 4:4.3.4
 _ZN12KCompactDisc10discStatusEv@Base 4:4.3.4
 _ZN12KCompactDisc10setBalanceEj@Base 4:4.3.4
 _ZN12KCompactDisc10trackTitleEj@Base 4:4.3.4
 _ZN12KCompactDisc10trackTitleEv@Base 4:4.3.4
 _ZN12KCompactDisc11deviceModelEv@Base 4:4.3.4
 _ZN12KCompactDisc11discChangedEj@Base 4:4.3.4
 _ZN12KCompactDisc11qt_metacallEN11QMetaObject4CallEiPPv@Base 4:4.3.4
 _ZN12KCompactDisc11qt_metacastEPKc@Base 4:4.3.4
 _ZN12KCompactDisc11trackArtistEj@Base 4:4.3.4
 _ZN12KCompactDisc11trackArtistEv@Base 4:4.3.4
 _ZN12KCompactDisc11trackLengthEj@Base 4:4.3.4
 _ZN12KCompactDisc11trackLengthEv@Base 4:4.3.4
 _ZN12KCompactDisc11urlToDeviceERK4KUrl@Base 4:4.3.4
 _ZN12KCompactDisc12audioSystemsEv@Base 4:4.3.4
 _ZN12KCompactDisc12deviceVendorEv@Base 4:4.3.4
 _ZN12KCompactDisc12discPositionEv@Base 4:4.3.4
 _ZN12KCompactDisc12playPositionEj@Base 4:4.3.4
 _ZN12KCompactDisc13discSignatureEv@Base 4:4.3.4
 _ZN12KCompactDisc13trackPositionEv@Base 4:4.3.4
 _ZN12KCompactDisc13volumeChangedEj@Base 4:4.3.4
 _ZN12KCompactDisc14balanceChangedEj@Base 4:4.3.4
 _ZN12KCompactDisc14cdromDeviceUdiERK7QString@Base 4:4.3.4
 _ZN12KCompactDisc14cdromDeviceUrlERK7QString@Base 4:4.3.4
 _ZN12KCompactDisc14deviceRevisionEv@Base 4:4.3.4
 _ZN12KCompactDisc14metadataLookupEv@Base 4:4.3.4
 _ZN12KCompactDisc15discInformationENS_8DiscInfoE@Base 4:4.3.4
 _ZN12KCompactDisc15setLoopPlaylistEb@Base 4:4.3.4
 _ZN12KCompactDisc16cdromDeviceNamesEv@Base 4:4.3.4
 _ZN12KCompactDisc16discStatusStringENS_10DiscStatusE@Base 4:4.3.4
 _ZN12KCompactDisc16staticMetaObjectE@Base 4:4.3.4
 _ZN12KCompactDisc17discStatusChangedENS_10DiscStatusE@Base 4:4.3.4
 _ZN12KCompactDisc17setRandomPlaylistEb@Base 4:4.3.4
 _ZN12KCompactDisc19loopPlaylistChangedEb@Base 4:4.3.4
 _ZN12KCompactDisc19playoutTrackChangedEj@Base 4:4.3.4
 _ZN12KCompactDisc21defaultCdromDeviceUdiEv@Base 4:4.3.4
 _ZN12KCompactDisc21defaultCdromDeviceUrlEv@Base 4:4.3.4
 _ZN12KCompactDisc21randomPlaylistChangedEb@Base 4:4.3.4
 _ZN12KCompactDisc21setAutoMetadataLookupEb@Base 4:4.3.4
 _ZN12KCompactDisc22defaultCdromDeviceNameEv@Base 4:4.3.4
 _ZN12KCompactDisc22playoutPositionChangedEj@Base 4:4.3.4
 _ZN12KCompactDisc4loopEv@Base 4:4.3.4
 _ZN12KCompactDisc4nextEv@Base 4:4.3.4
 _ZN12KCompactDisc4playEv@Base 4:4.3.4
 _ZN12KCompactDisc4prevEv@Base 4:4.3.4
 _ZN12KCompactDisc4stopEv@Base 4:4.3.4
 _ZN12KCompactDisc5ejectEv@Base 4:4.3.4
 _ZN12KCompactDisc5pauseEv@Base 4:4.3.4
 _ZN12KCompactDisc5trackEv@Base 4:4.3.4
 _ZN12KCompactDisc6discIdEv@Base 4:4.3.4
 _ZN12KCompactDisc6randomEv@Base 4:4.3.4
 _ZN12KCompactDisc6tracksEv@Base 4:4.3.4
 _ZN12KCompactDisc7isAudioEj@Base 4:4.3.4
 _ZN12KCompactDisc8isNoDiscEv@Base 4:4.3.4
 _ZN12KCompactDisc8isPausedEv@Base 4:4.3.4
 _ZN12KCompactDisc9deviceUrlEv@Base 4:4.3.4
 _ZN12KCompactDisc9discTitleEv@Base 4:4.3.4
 _ZN12KCompactDisc9doCommandENS_11DiscCommandE@Base 4:4.3.4
 _ZN12KCompactDisc9isPlayingEv@Base 4:4.3.4
 _ZN12KCompactDisc9playTrackEj@Base 4:4.3.4
 _ZN12KCompactDisc9setDeviceERK7QStringjbS2_S2_@Base 4:4.3.4
 _ZN12KCompactDisc9setVolumeEj@Base 4:4.3.4
 _ZN12KCompactDiscC1ENS_15InformationModeE@Base 4:4.3.4
 _ZN12KCompactDiscC2ENS_15InformationModeE@Base 4:4.3.4
 _ZN12KCompactDiscD0Ev@Base 4:4.3.4
 _ZN12KCompactDiscD1Ev@Base 4:4.3.4
 _ZN12KCompactDiscD2Ev@Base 4:4.3.4
 _ZN14ProducerWidgetC1EP25KPhononCompactDiscPrivateRK7QString@Base 4:15.12.0
 _ZN14ProducerWidgetC2EP25KPhononCompactDiscPrivateRK7QString@Base 4:15.12.0
 _ZN14ProducerWidgetD0Ev@Base 4:15.12.0
 _ZN14ProducerWidgetD1Ev@Base 4:15.12.0
 _ZN14ProducerWidgetD2Ev@Base 4:15.12.0
 _ZN19KCompactDiscPrivate10setBalanceEj@Base 4:15.12.0
 _ZN19KCompactDiscPrivate11qt_metacallEN11QMetaObject4CallEiPPv@Base 4:15.12.0
 _ZN19KCompactDiscPrivate11qt_metacastEPKc@Base 4:15.12.0
 _ZN19KCompactDiscPrivate11trackLengthEj@Base 4:15.12.0
 _ZN19KCompactDiscPrivate12isTrackAudioEj@Base 4:15.12.0
 _ZN19KCompactDiscPrivate13clearDiscInfoEv@Base 4:15.12.0
 _ZN19KCompactDiscPrivate13make_playlistEv@Base 4:15.12.0
 _ZN19KCompactDiscPrivate13moveInterfaceERK7QStringS2_S2_@Base 4:15.12.0
 _ZN19KCompactDiscPrivate13queryMetadataEv@Base 4:15.12.0
 _ZN19KCompactDiscPrivate14discStatusI18nEN12KCompactDisc10DiscStatusE@Base 4:15.12.0
 _ZN19KCompactDiscPrivate15createInterfaceEv@Base 4:15.12.0
 _ZN19KCompactDiscPrivate16skipStatusChangeEN12KCompactDisc10DiscStatusE@Base 4:15.12.0
 _ZN19KCompactDiscPrivate16staticMetaObjectE@Base 4:15.12.0
 _ZN19KCompactDiscPrivate17playTrackPositionEjj@Base 4:15.12.0
 _ZN19KCompactDiscPrivate22getNextTrackInPlaylistEv@Base 4:15.12.0
 _ZN19KCompactDiscPrivate22getPrevTrackInPlaylistEv@Base 4:15.12.0
 _ZN19KCompactDiscPrivate4stopEv@Base 4:15.12.0
 _ZN19KCompactDiscPrivate5ejectEv@Base 4:15.12.0
 _ZN19KCompactDiscPrivate5pauseEv@Base 4:15.12.0
 _ZN19KCompactDiscPrivate6volumeEv@Base 4:15.12.0
 _ZN19KCompactDiscPrivate7balanceEv@Base 4:15.12.0
 _ZN19KCompactDiscPrivate9closetrayEv@Base 4:15.12.0
 _ZN19KCompactDiscPrivate9setVolumeEj@Base 4:15.12.0
 _ZN19KCompactDiscPrivateC1EP12KCompactDiscRK7QString@Base 4:15.12.0
 _ZN19KCompactDiscPrivateC2EP12KCompactDiscRK7QString@Base 4:15.12.0
 _ZN19KCompactDiscPrivateD0Ev@Base 4:15.12.0
 _ZN19KCompactDiscPrivateD1Ev@Base 4:15.12.0
 _ZN19KCompactDiscPrivateD2Ev@Base 4:15.12.0
 _ZN24KWMLibCompactDiscPrivate10setBalanceEj@Base 4:15.12.0
 _ZN24KWMLibCompactDiscPrivate11qt_metacallEN11QMetaObject4CallEiPPv@Base 4:15.12.0
 _ZN24KWMLibCompactDiscPrivate11qt_metacastEPKc@Base 4:15.12.0
 _ZN24KWMLibCompactDiscPrivate11trackLengthEj@Base 4:15.12.0
 _ZN24KWMLibCompactDiscPrivate12isTrackAudioEj@Base 4:15.12.0
 _ZN24KWMLibCompactDiscPrivate12timerExpiredEv@Base 4:15.12.0
 _ZN24KWMLibCompactDiscPrivate13queryMetadataEv@Base 4:15.12.0
 _ZN24KWMLibCompactDiscPrivate15createInterfaceEv@Base 4:15.12.0
 _ZN24KWMLibCompactDiscPrivate16staticMetaObjectE@Base 4:15.12.0
 _ZN24KWMLibCompactDiscPrivate17playTrackPositionEjj@Base 4:15.12.0
 _ZN24KWMLibCompactDiscPrivate19discStatusTranslateEi@Base 4:15.12.0
 _ZN24KWMLibCompactDiscPrivate4stopEv@Base 4:15.12.0
 _ZN24KWMLibCompactDiscPrivate5ejectEv@Base 4:15.12.0
 _ZN24KWMLibCompactDiscPrivate5pauseEv@Base 4:15.12.0
 _ZN24KWMLibCompactDiscPrivate6cdtextEv@Base 4:15.12.0
 _ZN24KWMLibCompactDiscPrivate6volumeEv@Base 4:15.12.0
 _ZN24KWMLibCompactDiscPrivate7balanceEv@Base 4:15.12.0
 _ZN24KWMLibCompactDiscPrivate9closetrayEv@Base 4:15.12.0
 _ZN24KWMLibCompactDiscPrivate9setVolumeEj@Base 4:15.12.0
 _ZN24KWMLibCompactDiscPrivateC1EP12KCompactDiscRK7QStringS4_S4_@Base 4:15.12.0
 _ZN24KWMLibCompactDiscPrivateC2EP12KCompactDiscRK7QStringS4_S4_@Base 4:15.12.0
 _ZN24KWMLibCompactDiscPrivateD0Ev@Base 4:15.12.0
 _ZN24KWMLibCompactDiscPrivateD1Ev@Base 4:15.12.0
 _ZN24KWMLibCompactDiscPrivateD2Ev@Base 4:15.12.0
 _ZN25KPhononCompactDiscPrivate10setBalanceEj@Base 4:15.12.0
 _ZN25KPhononCompactDiscPrivate11qt_metacallEN11QMetaObject4CallEiPPv@Base 4:15.12.0
 _ZN25KPhononCompactDiscPrivate11qt_metacastEPKc@Base 4:15.12.0
 _ZN25KPhononCompactDiscPrivate11trackLengthEj@Base 4:15.12.0
 _ZN25KPhononCompactDiscPrivate12isTrackAudioEj@Base 4:15.12.0
 _ZN25KPhononCompactDiscPrivate12stateChangedEN6Phonon5StateES1_@Base 4:15.12.0
 _ZN25KPhononCompactDiscPrivate13queryMetadataEv@Base 4:15.12.0
 _ZN25KPhononCompactDiscPrivate15createInterfaceEv@Base 4:15.12.0
 _ZN25KPhononCompactDiscPrivate16staticMetaObjectE@Base 4:15.12.0
 _ZN25KPhononCompactDiscPrivate17playTrackPositionEjj@Base 4:15.12.0
 _ZN25KPhononCompactDiscPrivate19discStatusTranslateEN6Phonon5StateE@Base 4:15.12.0
 _ZN25KPhononCompactDiscPrivate4stopEv@Base 4:15.12.0
 _ZN25KPhononCompactDiscPrivate4tickEx@Base 4:15.12.0
 _ZN25KPhononCompactDiscPrivate5ejectEv@Base 4:15.12.0
 _ZN25KPhononCompactDiscPrivate5pauseEv@Base 4:15.12.0
 _ZN25KPhononCompactDiscPrivate6volumeEv@Base 4:15.12.0
 _ZN25KPhononCompactDiscPrivate7balanceEv@Base 4:15.12.0
 _ZN25KPhononCompactDiscPrivate8producerEv@Base 4:15.12.0
 _ZN25KPhononCompactDiscPrivate9closetrayEv@Base 4:15.12.0
 _ZN25KPhononCompactDiscPrivate9setVolumeEj@Base 4:15.12.0
 _ZN25KPhononCompactDiscPrivateC1EP12KCompactDiscRK7QString@Base 4:15.12.0
 _ZN25KPhononCompactDiscPrivateC2EP12KCompactDiscRK7QString@Base 4:15.12.0
 _ZN25KPhononCompactDiscPrivateD0Ev@Base 4:15.12.0
 _ZN25KPhononCompactDiscPrivateD1Ev@Base 4:15.12.0
 _ZN25KPhononCompactDiscPrivateD2Ev@Base 4:15.12.0
 (optional=templinst)_ZN4QMapI7QString4KUrlE13detach_helperEv@Base 4:15.12.0
 (optional=templinst)_ZN4QMapI7QString4KUrlED1Ev@Base 4:15.12.0
 (optional=templinst)_ZN4QMapI7QString4KUrlED2Ev@Base 4:15.12.0
 (optional=templinst)_ZN4QMapI7QStringS0_E13detach_helperEv@Base 4:15.12.0
 (optional=templinst)_ZN4QMapI7QStringS0_E4takeERKS0_@Base 4:15.12.0
 (optional=templinst)_ZN4QMapI7QStringS0_ED1Ev@Base 4:15.12.0
 (optional=templinst)_ZN4QMapI7QStringS0_ED2Ev@Base 4:15.12.0
 (optional=templinst)_ZN5QListI4KUrlE18detach_helper_growEii@Base 4:15.12.0
 (optional=templinst)_ZN5QListI7QStringE13detach_helperEi@Base 4:15.12.0
 (optional=templinst)_ZN5QListI7QStringE18detach_helper_growEii@Base 4:15.12.0
 (optional=templinst)_ZN5QListI7QStringE5clearEv@Base 4:15.12.0
 (optional=templinst)_ZN5QListI7QStringE6appendERKS0_@Base 4:15.12.0
 (optional=templinst)_ZN5QListI7QStringE7reserveEi@Base 4:15.12.0
 (optional=templinst|arch=!x32)_ZN5QListI7QStringED1Ev@Base 4:15.12.0
 (optional=templinst|arch=!x32)_ZN5QListI7QStringED2Ev@Base 4:15.12.0
 (optional=templinst|arch=!x32)_ZN5QListIN5Solid6DeviceEE13detach_helperEi@Base 4:15.12.0
 (optional=templinst|arch=!x32)_ZN5QListIN5Solid6DeviceEED1Ev@Base 4:15.12.0
 (optional=templinst|arch=!x32)_ZN5QListIN5Solid6DeviceEED2Ev@Base 4:15.12.0
 (optional=templinst)_ZN5QListIjE13detach_helperEi@Base 4:15.12.0
 (optional=templinst)_ZN5QListIjE18detach_helper_growEii@Base 4:15.12.0
 (optional=templinst)_ZN5QListIjE5clearEv@Base 4:15.12.0
 (optional=templinst)_ZN5QListIjE6appendERKj@Base 4:15.12.0
 (optional=templinst|arch=!x32)_ZN5QListIjED1Ev@Base 4:15.12.0
 (optional=templinst|arch=!x32)_ZN5QListIjED2Ev@Base 4:15.12.0
 _ZN7QStringD1Ev@Base 4:15.12.0
 _ZN7QStringD2Ev@Base 4:15.12.0
 _ZNK12KCompactDisc10metaObjectEv@Base 4:4.3.4
 _ZNK19KCompactDiscPrivate10metaObjectEv@Base 4:15.12.0
 _ZNK24KWMLibCompactDiscPrivate10metaObjectEv@Base 4:15.12.0
 _ZNK25KPhononCompactDiscPrivate10metaObjectEv@Base 4:15.12.0
 (optional=templinst)_ZNK4QMapI7QString4KUrlE4keysEv@Base 4:15.12.0
 (optional=templinst)_ZNK4QMapI7QString4KUrlE6valuesEv@Base 4:15.12.0
 (optional=templinst)_ZNK5QListIjE7indexOfERKji@Base 4:15.12.0
 _ZTI12KCompactDisc@Base 4:4.3.4
 _ZTI14ProducerWidget@Base 4:15.12.0
 _ZTI19KCompactDiscPrivate@Base 4:15.12.0
 _ZTI24KWMLibCompactDiscPrivate@Base 4:15.12.0
 _ZTI25KPhononCompactDiscPrivate@Base 4:15.12.0
 _ZTS12KCompactDisc@Base 4:4.3.4
 _ZTS14ProducerWidget@Base 4:15.12.0
 _ZTS19KCompactDiscPrivate@Base 4:15.12.0
 _ZTS24KWMLibCompactDiscPrivate@Base 4:15.12.0
 _ZTS25KPhononCompactDiscPrivate@Base 4:15.12.0
 _ZTV12KCompactDisc@Base 4:4.3.4
 _ZTV14ProducerWidget@Base 4:15.12.0
 _ZTV19KCompactDiscPrivate@Base 4:15.12.0
 _ZTV24KWMLibCompactDiscPrivate@Base 4:15.12.0
 _ZTV25KPhononCompactDiscPrivate@Base 4:15.12.0
 (arch=linux-any)alsa_close@Base 4:4.3.4
 (arch=linux-any)alsa_open@Base 4:4.3.4
 (arch=linux-any)alsa_play@Base 4:4.3.4
 (arch=linux-any)alsa_stop@Base 4:4.3.4
 (arch=linux-any)buffer_size@Base 4:4.3.4
 (arch=linux-any)buffer_time@Base 4:4.3.4
 (arch=!hurd-any)cddb_discid@Base 4:4.3.4
 (arch=linux-any)channels@Base 4:4.3.4
 (arch=!hurd-any)free_cdtext@Base 4:4.3.4
 (arch=!hurd-any)free_cdtext_info@Base 4:4.3.4
 (arch=!hurd-any)free_cdtext_info_block@Base 4:4.3.4
 (arch=!hurd-any)freeup@Base 4:4.3.4
 (arch=linux-any)gen_cdda_close@Base 4:4.3.4
 (arch=linux-any)gen_cdda_init@Base 4:4.3.4
 (arch=linux-any)gen_cdda_open@Base 4:4.3.4
 (arch=linux-any)gen_cdda_read@Base 4:4.3.4
 (arch=!hurd-any)gen_close@Base 4:4.3.4
 (arch=!hurd-any)gen_closetray@Base 4:4.3.4
 (arch=!hurd-any)gen_eject@Base 4:4.3.4
 (arch=!hurd-any)gen_get_cdlen@Base 4:4.3.4
 (arch=!hurd-any)gen_get_drive_status@Base 4:4.3.4
 (arch=!hurd-any)gen_get_trackcount@Base 4:4.3.4
 (arch=!hurd-any)gen_get_trackinfo@Base 4:4.3.4
 (arch=!hurd-any)gen_get_volume@Base 4:4.3.4
 (arch=!hurd-any)gen_init@Base 4:4.3.4
 (arch=!hurd-any)gen_open@Base 4:4.3.4
 (arch=!hurd-any)gen_pause@Base 4:4.3.4
 (arch=!hurd-any)gen_play@Base 4:4.3.4
 (arch=!hurd-any)gen_resume@Base 4:4.3.4
 (arch=!hurd-any)gen_scale_volume@Base 4:4.3.4
 (arch=!hurd-any)gen_scsi@Base 4:4.3.4
 (arch=!hurd-any)gen_set_volume@Base 4:4.3.4
 (arch=!hurd-any)gen_stop@Base 4:4.3.4
 (arch=!hurd-any)gen_unscale_volume@Base 4:4.3.4
 (arch=!hurd-any)get_data_from_cdtext_pack@Base 4:4.3.4
 (arch=!hurd-any)get_glob_cdtext@Base 4:4.3.4
 (arch=!hurd-any)intermittent_dev@Base 4:4.3.4
 (arch=!hurd-any)malloc_cdtext_info_block@Base 4:4.3.4
 (arch=kfreebsd-any)max_volume@Base 4:4.3.4
 (arch=kfreebsd-any)min_volume@Base 4:4.3.4
 (arch=linux-any)new_rate@Base 4:4.3.4
 (arch=linux-any)period_size@Base 4:4.3.4
 (arch=linux-any)period_time@Base 4:4.3.4
 (arch=linux-any)rate@Base 4:4.3.4
 (arch=!hurd-any)sendscsi@Base 4:4.3.4
 (arch=linux-any)setup_alsa@Base 4:4.3.4
 (arch=!hurd-any)setup_soundsystem@Base 4:4.3.4
 (arch=!hurd-any)sony_fixup@Base 4:4.3.4
 (arch=!hurd-any)toshiba_fixup@Base 4:4.3.4
 (arch=!hurd-any)wm_cd_closetray@Base 4:4.3.4
 (arch=!hurd-any)wm_cd_destroy@Base 4:4.3.4
 (arch=!hurd-any)wm_cd_eject@Base 4:4.3.4
 (arch=!hurd-any)wm_cd_get_cdtext@Base 4:4.3.4
 (arch=!hurd-any)wm_cd_getbalance@Base 4:4.3.4
 (arch=!hurd-any)wm_cd_getcountoftracks@Base 4:4.3.4
 (arch=!hurd-any)wm_cd_getcurtrack@Base 4:4.3.4
 (arch=!hurd-any)wm_cd_getcurtracklen@Base 4:4.3.4
 (arch=!hurd-any)wm_cd_gettrackdata@Base 4:4.3.4
 (arch=!hurd-any)wm_cd_gettracklen@Base 4:4.3.4
 (arch=!hurd-any)wm_cd_gettrackstart@Base 4:4.3.4
 (arch=!hurd-any)wm_cd_getvolume@Base 4:4.3.4
 (arch=!hurd-any)wm_cd_init@Base 4:4.3.4
 (arch=!hurd-any)wm_cd_pause@Base 4:4.3.4
 (arch=!hurd-any)wm_cd_play@Base 4:4.3.4
 (arch=!hurd-any)wm_cd_set_verbosity@Base 4:4.3.4
 (arch=!hurd-any)wm_cd_status@Base 4:4.3.4
 (arch=!hurd-any)wm_cd_stop@Base 4:4.3.4
 (arch=!hurd-any)wm_cd_volume@Base 4:4.3.4
 (arch=!hurd-any)wm_cdda_destroy@Base 4:4.3.4
 (arch=!hurd-any)wm_cdda_init@Base 4:4.3.4
 (arch=!hurd-any)wm_cddb_discid@Base 4:4.3.4
 (arch=!hurd-any)wm_cdtext_info@Base 4:4.3.4
 (arch=!hurd-any)wm_drive_default_device@Base 4:4.3.4
 (arch=!hurd-any)wm_drive_model@Base 4:4.3.4
 (arch=!hurd-any)wm_drive_revision@Base 4:4.3.4
 (arch=!hurd-any)wm_drive_vendor@Base 4:4.3.4
 (arch=!hurd-any)wm_get_cur_pos_abs@Base 4:4.3.4
 (arch=!hurd-any)wm_get_cur_pos_rel@Base 4:4.3.4
 (arch=!hurd-any)wm_lib_get_verbosity@Base 4:4.3.4
 (arch=!hurd-any)wm_lib_message@Base 4:4.3.4
 (arch=!hurd-any)wm_lib_set_verbosity@Base 4:4.3.4
 (arch=!hurd-any)wm_lib_verbosity@Base 4:4.3.4
 (arch=!hurd-any)wm_libver_date@Base 4:4.3.4
 (arch=!hurd-any)wm_libver_major@Base 4:4.3.4
 (arch=!hurd-any)wm_libver_minor@Base 4:4.3.4
 (arch=!hurd-any)wm_libver_name@Base 4:4.3.4
 (arch=!hurd-any)wm_libver_number@Base 4:4.3.4
 (arch=!hurd-any)wm_libver_pl@Base 4:4.3.4
 (arch=!hurd-any)wm_libver_string@Base 4:4.3.4
 (arch=!hurd-any)wm_scsi2_closetray@Base 4:4.3.4
 (arch=!hurd-any)wm_scsi2_eject@Base 4:4.3.4
 (arch=!hurd-any)wm_scsi2_get_cdlen@Base 4:4.3.4
 (arch=!hurd-any)wm_scsi2_get_drive_status@Base 4:4.3.4
 (arch=!hurd-any)wm_scsi2_get_trackcount@Base 4:4.3.4
 (arch=!hurd-any)wm_scsi2_get_trackinfo@Base 4:4.3.4
 (arch=!hurd-any)wm_scsi2_get_volume@Base 4:4.3.4
 (arch=!hurd-any)wm_scsi2_pause@Base 4:4.3.4
 (arch=!hurd-any)wm_scsi2_pause_resume@Base 4:4.3.4
 (arch=!hurd-any)wm_scsi2_play@Base 4:4.3.4
 (arch=!hurd-any)wm_scsi2_prevent@Base 4:4.3.4
 (arch=!hurd-any)wm_scsi2_resume@Base 4:4.3.4
 (arch=!hurd-any)wm_scsi2_set_volume@Base 4:4.3.4
 (arch=!hurd-any)wm_scsi2_stop@Base 4:4.3.4
 (arch=!hurd-any)wm_scsi_get_cdtext@Base 4:4.3.4
 (arch=!hurd-any)wm_scsi_get_drive_type@Base 4:4.3.4
 (arch=!hurd-any)wm_scsi_mode_select@Base 4:4.3.4
 (arch=!hurd-any)wm_scsi_mode_sense@Base 4:4.3.4
 (arch=!hurd-any)wm_scsi_set_speed@Base 4:4.3.4
 (arch=!hurd-any)wm_strdup@Base 4:4.3.4
 (arch=!hurd-any)wm_strmcat@Base 4:4.3.4
 (arch=!hurd-any)wm_strmcpy@Base 4:4.3.4
 (arch=!hurd-any)wm_susleep@Base 4:4.3.4
